target datalayout = "e-m:e-p270:32:32-p271:32:32-p272:64:64-i64:64-i128:128-f80:128-n8:16:32:64-S128"
target triple = "x86_64-pc-linux-gnu"

%struct.SDL_VideoDevice = type { ptr, ptr, ptr, ptr, ptr, ptr, ptr, ptr, ptr, ptr, ptr, ptr, ptr, ptr, ptr, ptr, ptr, ptr, ptr, ptr, ptr, ptr, ptr, ptr, ptr, ptr, ptr, ptr, ptr, ptr, ptr, ptr, ptr, ptr, ptr, ptr, ptr, ptr, ptr, ptr, ptr, ptr, ptr, ptr, ptr, ptr, ptr, ptr, ptr, ptr, ptr, ptr, ptr, ptr, ptr, ptr, ptr, ptr, ptr, ptr, ptr, ptr, ptr, ptr, ptr, ptr, ptr, ptr, ptr, ptr, ptr, ptr, ptr, ptr, ptr, ptr, ptr, ptr, ptr, ptr, ptr, ptr, ptr, ptr, ptr, ptr, ptr, ptr, ptr, ptr, ptr, ptr, ptr, ptr, ptr, ptr, ptr, i64, i8, i8, i8, ptr, i32, ptr, %struct.SDL_Rect, ptr, ptr, i32, ptr, ptr, ptr, ptr, i64, ptr, i8, i32, i32, %struct.anon, ptr, ptr, ptr, ptr, ptr, ptr, %struct.SDL_AtomicInt, %struct.SDL_AtomicInt, i8, %struct.anon.0, ptr, ptr, ptr, ptr, ptr }
%struct.SDL_Rect = type { i32, i32, i32, i32 }
%struct.anon = type { i32, i32, i32, i32, i32, i32, i32, i32, i32, i32, i32, i32, i32, i32, i32, i32, i32, i32, i32, i32, i32, i32, i32, i32, i32, i32, i32, i32, i32, [256 x i8], ptr }
%struct.SDL_AtomicInt = type { i32 }
%struct.anon.0 = type { ptr, ptr, i32, [256 x i8], ptr }
%struct.VkExtensionProperties = type { [256 x i8], i32 }

@.str = private unnamed_addr constant [22 x i8] c"Vulkan already loaded\00", align 1
@.str.1 = private unnamed_addr constant [19 x i8] c"SDL_VULKAN_LIBRARY\00", align 1
@.str.2 = private unnamed_addr constant [15 x i8] c"libvulkan.so.1\00", align 1
@.str.3 = private unnamed_addr constant [22 x i8] c"vkGetInstanceProcAddr\00", align 1
@.str.4 = private unnamed_addr constant [39 x i8] c"vkEnumerateInstanceExtensionProperties\00", align 1
@.str.5 = private unnamed_addr constant [15 x i8] c"VK_KHR_surface\00", align 1
@.str.6 = private unnamed_addr constant [23 x i8] c"VK_KHR_wayland_surface\00", align 1
@.str.7 = private unnamed_addr constant [64 x i8] c"Installed Vulkan doesn't implement the VK_KHR_surface extension\00", align 1
@.str.8 = private unnamed_addr constant [71 x i8] c"Installed Vulkan doesn't implement the VK_KHR_wayland_surfaceextension\00", align 1

; Function Attrs: nounwind uwtable
define hidden zeroext i1 @Wayland_Vulkan_LoadLibrary(ptr noundef %0, ptr noundef %1) #0 {
  %3 = alloca i1, align 1
  %4 = alloca ptr, align 8
  %5 = alloca ptr, align 8
  %6 = alloca ptr, align 8
  %7 = alloca i32, align 4
  %8 = alloca i32, align 4
  %9 = alloca i8, align 1
  %10 = alloca i8, align 1
  %11 = alloca ptr, align 8
  %12 = alloca i32, align 4
  store ptr %0, ptr %4, align 8
  store ptr %1, ptr %5, align 8
  call void @llvm.lifetime.start.p0(i64 8, ptr %6) #4
  store ptr null, ptr %6, align 8
  call void @llvm.lifetime.start.p0(i64 4, ptr %7) #4
  call void @llvm.lifetime.start.p0(i64 4, ptr %8) #4
  store i32 0, ptr %8, align 4
  call void @llvm.lifetime.start.p0(i64 1, ptr %9) #4
  store i8 0, ptr %9, align 1
  call void @llvm.lifetime.start.p0(i64 1, ptr %10) #4
  store i8 0, ptr %10, align 1
  call void @llvm.lifetime.start.p0(i64 8, ptr %11) #4
  store ptr null, ptr %11, align 8
  %13 = load ptr, ptr %4, align 8
  %14 = getelementptr inbounds nuw %struct.SDL_VideoDevice, ptr %13, i32 0, i32 127
  %15 = getelementptr inbounds nuw %struct.anon.0, ptr %14, i32 0, i32 4
  %16 = load ptr, ptr %15, align 8
  %17 = icmp ne ptr %16, null
  br i1 %17, label %18, label %20

18:                                               ; preds = %2
  %19 = call zeroext i1 (ptr, ...) @SDL_SetError_REAL(ptr noundef @.str)
  store i1 %19, ptr %3, align 1
  store i32 1, ptr %12, align 4
  br label %135

20:                                               ; preds = %2
  %21 = load ptr, ptr %5, align 8
  %22 = icmp ne ptr %21, null
  br i1 %22, label %25, label %23

23:                                               ; preds = %20
  %24 = call ptr @SDL_GetHint_REAL(ptr noundef @.str.1)
  store ptr %24, ptr %5, align 8
  br label %25

25:                                               ; preds = %23, %20
  %26 = load ptr, ptr %5, align 8
  %27 = icmp ne ptr %26, null
  br i1 %27, label %29, label %28

28:                                               ; preds = %25
  store ptr @.str.2, ptr %5, align 8
  br label %29

29:                                               ; preds = %28, %25
  %30 = load ptr, ptr %5, align 8
  %31 = call ptr @SDL_LoadObject_REAL(ptr noundef %30)
  %32 = load ptr, ptr %4, align 8
  %33 = getelementptr inbounds nuw %struct.SDL_VideoDevice, ptr %32, i32 0, i32 127
  %34 = getelementptr inbounds nuw %struct.anon.0, ptr %33, i32 0, i32 4
  store ptr %31, ptr %34, align 8
  %35 = load ptr, ptr %4, align 8
  %36 = getelementptr inbounds nuw %struct.SDL_VideoDevice, ptr %35, i32 0, i32 127
  %37 = getelementptr inbounds nuw %struct.anon.0, ptr %36, i32 0, i32 4
  %38 = load ptr, ptr %37, align 8
  %39 = icmp ne ptr %38, null
  br i1 %39, label %41, label %40

40:                                               ; preds = %29
  store i1 false, ptr %3, align 1
  store i32 1, ptr %12, align 4
  br label %135

41:                                               ; preds = %29
  %42 = load ptr, ptr %4, align 8
  %43 = getelementptr inbounds nuw %struct.SDL_VideoDevice, ptr %42, i32 0, i32 127
  %44 = getelementptr inbounds nuw %struct.anon.0, ptr %43, i32 0, i32 3
  %45 = getelementptr inbounds [256 x i8], ptr %44, i64 0, i64 0
  %46 = load ptr, ptr %5, align 8
  %47 = call i64 @SDL_strlcpy_REAL(ptr noundef %45, ptr noundef %46, i64 noundef 256)
  %48 = load ptr, ptr %4, align 8
  %49 = getelementptr inbounds nuw %struct.SDL_VideoDevice, ptr %48, i32 0, i32 127
  %50 = getelementptr inbounds nuw %struct.anon.0, ptr %49, i32 0, i32 4
  %51 = load ptr, ptr %50, align 8
  %52 = call ptr @SDL_LoadFunction_REAL(ptr noundef %51, ptr noundef @.str.3)
  store ptr %52, ptr %11, align 8
  %53 = load ptr, ptr %11, align 8
  %54 = icmp ne ptr %53, null
  br i1 %54, label %56, label %55

55:                                               ; preds = %41
  br label %127

56:                                               ; preds = %41
  %57 = load ptr, ptr %11, align 8
  %58 = load ptr, ptr %4, align 8
  %59 = getelementptr inbounds nuw %struct.SDL_VideoDevice, ptr %58, i32 0, i32 127
  %60 = getelementptr inbounds nuw %struct.anon.0, ptr %59, i32 0, i32 0
  store ptr %57, ptr %60, align 8
  %61 = load ptr, ptr %4, align 8
  %62 = getelementptr inbounds nuw %struct.SDL_VideoDevice, ptr %61, i32 0, i32 127
  %63 = getelementptr inbounds nuw %struct.anon.0, ptr %62, i32 0, i32 0
  %64 = load ptr, ptr %63, align 8
  %65 = call ptr %64(ptr noundef null, ptr noundef @.str.4)
  %66 = load ptr, ptr %4, align 8
  %67 = getelementptr inbounds nuw %struct.SDL_VideoDevice, ptr %66, i32 0, i32 127
  %68 = getelementptr inbounds nuw %struct.anon.0, ptr %67, i32 0, i32 1
  store ptr %65, ptr %68, align 8
  %69 = load ptr, ptr %4, align 8
  %70 = getelementptr inbounds nuw %struct.SDL_VideoDevice, ptr %69, i32 0, i32 127
  %71 = getelementptr inbounds nuw %struct.anon.0, ptr %70, i32 0, i32 1
  %72 = load ptr, ptr %71, align 8
  %73 = icmp ne ptr %72, null
  br i1 %73, label %75, label %74

74:                                               ; preds = %56
  br label %127

75:                                               ; preds = %56
  %76 = load ptr, ptr %4, align 8
  %77 = getelementptr inbounds nuw %struct.SDL_VideoDevice, ptr %76, i32 0, i32 127
  %78 = getelementptr inbounds nuw %struct.anon.0, ptr %77, i32 0, i32 1
  %79 = load ptr, ptr %78, align 8
  %80 = call ptr @SDL_Vulkan_CreateInstanceExtensionsList(ptr noundef %79, ptr noundef %8)
  store ptr %80, ptr %6, align 8
  %81 = load ptr, ptr %6, align 8
  %82 = icmp ne ptr %81, null
  br i1 %82, label %84, label %83

83:                                               ; preds = %75
  br label %127

84:                                               ; preds = %75
  store i32 0, ptr %7, align 4
  br label %85

85:                                               ; preds = %111, %84
  %86 = load i32, ptr %7, align 4
  %87 = load i32, ptr %8, align 4
  %88 = icmp ult i32 %86, %87
  br i1 %88, label %89, label %114

89:                                               ; preds = %85
  %90 = load ptr, ptr %6, align 8
  %91 = load i32, ptr %7, align 4
  %92 = zext i32 %91 to i64
  %93 = getelementptr inbounds nuw %struct.VkExtensionProperties, ptr %90, i64 %92
  %94 = getelementptr inbounds nuw %struct.VkExtensionProperties, ptr %93, i32 0, i32 0
  %95 = getelementptr inbounds [256 x i8], ptr %94, i64 0, i64 0
  %96 = call i32 @SDL_strcmp_REAL(ptr noundef @.str.5, ptr noundef %95)
  %97 = icmp eq i32 %96, 0
  br i1 %97, label %98, label %99

98:                                               ; preds = %89
  store i8 1, ptr %9, align 1
  br label %110

99:                                               ; preds = %89
  %100 = load ptr, ptr %6, align 8
  %101 = load i32, ptr %7, align 4
  %102 = zext i32 %101 to i64
  %103 = getelementptr inbounds nuw %struct.VkExtensionProperties, ptr %100, i64 %102
  %104 = getelementptr inbounds nuw %struct.VkExtensionProperties, ptr %103, i32 0, i32 0
  %105 = getelementptr inbounds [256 x i8], ptr %104, i64 0, i64 0
  %106 = call i32 @SDL_strcmp_REAL(ptr noundef @.str.6, ptr noundef %105)
  %107 = icmp eq i32 %106, 0
  br i1 %107, label %108, label %109

108:                                              ; preds = %99
  store i8 1, ptr %10, align 1
  br label %109

109:                                              ; preds = %108, %99
  br label %110

110:                                              ; preds = %109, %98
  br label %111

111:                                              ; preds = %110
  %112 = load i32, ptr %7, align 4
  %113 = add i32 %112, 1
  store i32 %113, ptr %7, align 4
  br label %85, !llvm.loop !3

114:                                              ; preds = %85
  %115 = load ptr, ptr %6, align 8
  call void @SDL_free_REAL(ptr noundef %115)
  %116 = load i8, ptr %9, align 1, !range !5, !noundef !6
  %117 = trunc i8 %116 to i1
  br i1 %117, label %120, label %118

118:                                              ; preds = %114
  %119 = call zeroext i1 (ptr, ...) @SDL_SetError_REAL(ptr noundef @.str.7)
  br label %127

120:                                              ; preds = %114
  %121 = load i8, ptr %10, align 1, !range !5, !noundef !6
  %122 = trunc i8 %121 to i1
  br i1 %122, label %125, label %123

123:                                              ; preds = %120
  %124 = call zeroext i1 (ptr, ...) @SDL_SetError_REAL(ptr noundef @.str.8)
  br label %127

125:                                              ; preds = %120
  br label %126

126:                                              ; preds = %125
  store i1 true, ptr %3, align 1
  store i32 1, ptr %12, align 4
  br label %135

127:                                              ; preds = %123, %118, %83, %74, %55
  %128 = load ptr, ptr %4, align 8
  %129 = getelementptr inbounds nuw %struct.SDL_VideoDevice, ptr %128, i32 0, i32 127
  %130 = getelementptr inbounds nuw %struct.anon.0, ptr %129, i32 0, i32 4
  %131 = load ptr, ptr %130, align 8
  call void @SDL_UnloadObject_REAL(ptr noundef %131)
  %132 = load ptr, ptr %4, align 8
  %133 = getelementptr inbounds nuw %struct.SDL_VideoDevice, ptr %132, i32 0, i32 127
  %134 = getelementptr inbounds nuw %struct.anon.0, ptr %133, i32 0, i32 4
  store ptr null, ptr %134, align 8
  store i1 false, ptr %3, align 1
  store i32 1, ptr %12, align 4
  br label %135

135:                                              ; preds = %127, %126, %40, %18
  call void @llvm.lifetime.end.p0(i64 8, ptr %11) #4
  call void @llvm.lifetime.end.p0(i64 1, ptr %10) #4
  call void @llvm.lifetime.end.p0(i64 1, ptr %9) #4
  call void @llvm.lifetime.end.p0(i64 4, ptr %8) #4
  call void @llvm.lifetime.end.p0(i64 4, ptr %7) #4
  call void @llvm.lifetime.end.p0(i64 8, ptr %6) #4
  %136 = load i1, ptr %3, align 1
  ret i1 %136
}