; Function Attrs: nounwind uwtable
define hidden zeroext i1 @Wayland_Vulkan_LoadLibrary(ptr noundef %0, ptr noundef %1) local_unnamed_addr #0 {
  %3 = alloca i32, align 4
  call void @llvm.lifetime.start.p0(i64 4, ptr nonnull %3) #5
  store i32 0, ptr %3, align 4
  %4 = getelementptr inbounds nuw i8, ptr %0, i64 1368
  %5 = getelementptr inbounds nuw i8, ptr %0, i64 1648
  %6 = load ptr, ptr %5, align 8
  %.not = icmp eq ptr %6, null
  br i1 %.not, label %9, label %7

7:                                                ; preds = %2
  %8 = tail call zeroext i1 (ptr, ...) @SDL_SetError_REAL(ptr noundef nonnull @.str) #5
  br label %39

9:                                                ; preds = %2
  %.not37 = icmp eq ptr %1, null
  br i1 %.not37, label %10, label %12

10:                                               ; preds = %9
  %11 = tail call ptr @SDL_GetHint_REAL(ptr noundef nonnull @.str.1) #5
  br label %12

12:                                               ; preds = %10, %9
  %.031 = phi ptr [ %1, %9 ], [ %11, %10 ]
  %.not38 = icmp eq ptr %.031, null
  %spec.store.select = select i1 %.not38, ptr @.str.2, ptr %.031
  %13 = tail call ptr @SDL_LoadObject_REAL(ptr noundef nonnull %spec.store.select) #5
  store ptr %13, ptr %5, align 8
  %.not39 = icmp eq ptr %13, null
  br i1 %.not39, label %39, label %14

14:                                               ; preds = %12
  %15 = getelementptr inbounds nuw i8, ptr %0, i64 1388
  %16 = tail call i64 @SDL_strlcpy_REAL(ptr noundef nonnull %15, ptr noundef nonnull %spec.store.select, i64 noundef 256) #5
  %17 = load ptr, ptr %5, align 8
  %18 = tail call ptr @SDL_LoadFunction_REAL(ptr noundef %17, ptr noundef nonnull @.str.3) #5
  %.not40 = icmp eq ptr %18, null
  br i1 %.not40, label %37, label %19

19:                                               ; preds = %14
  store ptr %18, ptr %4, align 8
  %20 = tail call ptr %18(ptr noundef null, ptr noundef nonnull @.str.4) #5
  %21 = getelementptr inbounds nuw i8, ptr %0, i64 1376
  store ptr %20, ptr %21, align 8
  %.not41 = icmp eq ptr %20, null
  br i1 %.not41, label %37, label %22

22:                                               ; preds = %19
  %23 = call ptr @SDL_Vulkan_CreateInstanceExtensionsList(ptr noundef nonnull %20, ptr noundef nonnull %3) #5
  %.not42 = icmp eq ptr %23, null
  br i1 %.not42, label %37, label %.preheader

.preheader:                                       ; preds = %22
  %24 = load i32, ptr %3, align 4
  %.not47 = icmp eq i32 %24, 0
  br i1 %.not47, label %._crit_edge.thread, label %.lr.ph

._crit_edge.thread:                               ; preds = %.preheader
  call void @SDL_free_REAL(ptr noundef nonnull %23) #5
  br label %.sink.split

.lr.ph:                                           ; preds = %.preheader, %31
  %indvars.iv = phi i64 [ %indvars.iv.next, %31 ], [ 0, %.preheader ]
  %.045 = phi i1 [ %.1, %31 ], [ false, %.preheader ]
  %.02844 = phi i1 [ %.129, %31 ], [ false, %.preheader ]
  %25 = getelementptr inbounds nuw %struct.VkExtensionProperties, ptr %23, i64 %indvars.iv
  %26 = call i32 @SDL_strcmp_REAL(ptr noundef nonnull @.str.5, ptr noundef nonnull %25) #5
  %27 = icmp eq i32 %26, 0
  br i1 %27, label %31, label %28

28:                                               ; preds = %.lr.ph
  %29 = call i32 @SDL_strcmp_REAL(ptr noundef nonnull @.str.6, ptr noundef nonnull %25) #5
  %30 = icmp eq i32 %29, 0
  %spec.select = select i1 %30, i1 true, i1 %.045
  br label %31

31:                                               ; preds = %28, %.lr.ph
  %.129 = phi i1 [ true, %.lr.ph ], [ %.02844, %28 ]
  %.1 = phi i1 [ %.045, %.lr.ph ], [ %spec.select, %28 ]
  %indvars.iv.next = add nuw nsw i64 %indvars.iv, 1
  %32 = load i32, ptr %3, align 4
  %33 = zext i32 %32 to i64
  %34 = icmp samesign ult i64 %indvars.iv.next, %33
  br i1 %34, label %.lr.ph, label %._crit_edge, !llvm.loop !3

._crit_edge:                                      ; preds = %31
  call void @SDL_free_REAL(ptr noundef nonnull %23) #5
  %35 = select i1 %.129, i1 %.1, i1 false
  %.str.7.mux = select i1 %.129, ptr @.str.8, ptr @.str.7
  br i1 %35, label %39, label %.sink.split

.sink.split:                                      ; preds = %._crit_edge, %._crit_edge.thread
  %.str.8.sink = phi ptr [ @.str.7, %._crit_edge.thread ], [ %.str.7.mux, %._crit_edge ]
  %36 = call zeroext i1 (ptr, ...) @SDL_SetError_REAL(ptr noundef nonnull %.str.8.sink) #5
  br label %37

37:                                               ; preds = %.sink.split, %22, %19, %14
  %38 = load ptr, ptr %5, align 8
  call void @SDL_UnloadObject_REAL(ptr noundef %38) #5
  store ptr null, ptr %5, align 8
  br label %39

39:                                               ; preds = %._crit_edge, %12, %37, %7
  %.032 = phi i1 [ %8, %7 ], [ false, %37 ], [ false, %12 ], [ true, %._crit_edge ]
  call void @llvm.lifetime.end.p0(i64 4, ptr nonnull %3) #5
  ret i1 %.032
}